target datalayout = "e-m:e-p270:32:32-p271:32:32-p272:64:64-i64:64-i128:128-f80:128-n8:16:32:64-S128"
target triple = "x86_64-pc-linux-gnu"

%struct.license_info_msg = type { i64, i32, ptr }
%struct.slurm_license_info = type { ptr, i32, i32, i32, i8, i32, i32, i32, i64 }

; Function Attrs: nounwind uwtable
define dso_local void @slurm_free_license_info_msg(ptr noundef %0) #0 {
  %2 = alloca ptr, align 8
  %3 = alloca i32, align 4
  %4 = alloca i32, align 4
  store ptr %0, ptr %2, align 8
  call void @llvm.lifetime.start.p0(i64 4, ptr %3) #11
  %5 = load ptr, ptr %2, align 8
  %6 = icmp eq ptr %5, null
  br i1 %6, label %7, label %8

7:                                                ; preds = %1
  store i32 1, ptr %4, align 4
  br label %35

8:                                                ; preds = %1
  %9 = load ptr, ptr %2, align 8
  %10 = getelementptr inbounds nuw %struct.license_info_msg, ptr %9, i32 0, i32 2
  %11 = load ptr, ptr %10, align 8
  %12 = icmp ne ptr %11, null
  br i1 %12, label %13, label %34

13:                                               ; preds = %8
  store i32 0, ptr %3, align 4
  br label %14

14:                                               ; preds = %28, %13
  %15 = load i32, ptr %3, align 4
  %16 = load ptr, ptr %2, align 8
  %17 = getelementptr inbounds nuw %struct.license_info_msg, ptr %16, i32 0, i32 1
  %18 = load i32, ptr %17, align 8
  %19 = icmp ult i32 %15, %18
  br i1 %19, label %20, label %31

20:                                               ; preds = %14
  %21 = load ptr, ptr %2, align 8
  %22 = getelementptr inbounds nuw %struct.license_info_msg, ptr %21, i32 0, i32 2
  %23 = load ptr, ptr %22, align 8
  %24 = load i32, ptr %3, align 4
  %25 = sext i32 %24 to i64
  %26 = getelementptr inbounds %struct.slurm_license_info, ptr %23, i64 %25
  %27 = getelementptr inbounds nuw %struct.slurm_license_info, ptr %26, i32 0, i32 0
  call void @slurm_xfree(ptr noundef %27)
  br label %28

28:                                               ; preds = %20
  %29 = load i32, ptr %3, align 4
  %30 = add nsw i32 %29, 1
  store i32 %30, ptr %3, align 4
  br label %14, !llvm.loop !67

31:                                               ; preds = %14
  %32 = load ptr, ptr %2, align 8
  %33 = getelementptr inbounds nuw %struct.license_info_msg, ptr %32, i32 0, i32 2
  call void @slurm_xfree(ptr noundef %33)
  br label %34

34:                                               ; preds = %31, %8
  call void @slurm_xfree(ptr noundef %2)
  store i32 0, ptr %4, align 4
  br label %35

35:                                               ; preds = %34, %7
  call void @llvm.lifetime.end.p0(i64 4, ptr %3) #11
  %36 = load i32, ptr %4, align 4
  switch i32 %36, label %38 [
    i32 0, label %37
    i32 1, label %37
  ]

37:                                               ; preds = %35, %35
  ret void

38:                                               ; preds = %35
  unreachable
}